target datalayout = "e-m:e-p270:32:32-p271:32:32-p272:64:64-i64:64-i128:128-f80:128-n8:16:32:64-S128"
target triple = "x86_64-pc-linux-gnu"

%struct.HashScanOpaqueData = type { i32, i32, i32, i8, i8, ptr, i32, %struct.HashScanPosData }
%struct.HashScanPosData = type { i32, i32, i32, i32, i32, i32, i32, [408 x %struct.HashScanPosItem] }
%struct.HashScanPosItem = type { %struct.ItemPointerData, i16 }
%struct.ItemPointerData = type { %struct.BlockIdData, i16 }
%struct.BlockIdData = type { i16, i16 }

; Function Attrs: nounwind uwtable
define dso_local void @_hash_dropbuf(ptr noundef %0, i32 noundef %1) #0 {
  %3 = alloca ptr, align 8
  %4 = alloca i32, align 4
  store ptr %0, ptr %3, align 8
  store i32 %1, ptr %4, align 4
  %5 = load i32, ptr %4, align 4
  call void @ReleaseBuffer(i32 noundef %5)
  ret void
}

; Function Attrs: inlinehint nounwind uwtable
define internal zeroext i1 @BufferIsValid(i32 noundef %0) #4 {
  %2 = alloca i32, align 4
  store i32 %0, ptr %2, align 4
  %3 = load i32, ptr %2, align 4
  %4 = icmp ne i32 %3, 0
  ret i1 %4
}

; Function Attrs: nounwind uwtable
define dso_local void @_hash_dropscanbuf(ptr noundef %0, ptr noundef %1) #0 {
  %3 = alloca ptr, align 8
  %4 = alloca ptr, align 8
  store ptr %0, ptr %3, align 8
  store ptr %1, ptr %4, align 8
  %5 = load ptr, ptr %4, align 8
  %6 = getelementptr inbounds nuw %struct.HashScanOpaqueData, ptr %5, i32 0, i32 1
  %7 = load i32, ptr %6, align 4
  %8 = call zeroext i1 @BufferIsValid(i32 noundef %7)
  br i1 %8, label %9, label %23

9:                                                ; preds = %2
  %10 = load ptr, ptr %4, align 8
  %11 = getelementptr inbounds nuw %struct.HashScanOpaqueData, ptr %10, i32 0, i32 1
  %12 = load i32, ptr %11, align 4
  %13 = load ptr, ptr %4, align 8
  %14 = getelementptr inbounds nuw %struct.HashScanOpaqueData, ptr %13, i32 0, i32 7
  %15 = getelementptr inbounds nuw %struct.HashScanPosData, ptr %14, i32 0, i32 0
  %16 = load i32, ptr %15, align 4
  %17 = icmp ne i32 %12, %16
  br i1 %17, label %18, label %23

18:                                               ; preds = %9
  %19 = load ptr, ptr %3, align 8
  %20 = load ptr, ptr %4, align 8
  %21 = getelementptr inbounds nuw %struct.HashScanOpaqueData, ptr %20, i32 0, i32 1
  %22 = load i32, ptr %21, align 4
  call void @_hash_dropbuf(ptr noundef %19, i32 noundef %22)
  br label %23

23:                                               ; preds = %18, %9, %2
  %24 = load ptr, ptr %4, align 8
  %25 = getelementptr inbounds nuw %struct.HashScanOpaqueData, ptr %24, i32 0, i32 1
  store i32 0, ptr %25, align 4
  %26 = load ptr, ptr %4, align 8
  %27 = getelementptr inbounds nuw %struct.HashScanOpaqueData, ptr %26, i32 0, i32 2
  %28 = load i32, ptr %27, align 8
  %29 = call zeroext i1 @BufferIsValid(i32 noundef %28)
  br i1 %29, label %30, label %44

30:                                               ; preds = %23
  %31 = load ptr, ptr %4, align 8
  %32 = getelementptr inbounds nuw %struct.HashScanOpaqueData, ptr %31, i32 0, i32 2
  %33 = load i32, ptr %32, align 8
  %34 = load ptr, ptr %4, align 8
  %35 = getelementptr inbounds nuw %struct.HashScanOpaqueData, ptr %34, i32 0, i32 7
  %36 = getelementptr inbounds nuw %struct.HashScanPosData, ptr %35, i32 0, i32 0
  %37 = load i32, ptr %36, align 4
  %38 = icmp ne i32 %33, %37
  br i1 %38, label %39, label %44

39:                                               ; preds = %30
  %40 = load ptr, ptr %3, align 8
  %41 = load ptr, ptr %4, align 8
  %42 = getelementptr inbounds nuw %struct.HashScanOpaqueData, ptr %41, i32 0, i32 2
  %43 = load i32, ptr %42, align 8
  call void @_hash_dropbuf(ptr noundef %40, i32 noundef %43)
  br label %44

44:                                               ; preds = %39, %30, %23
  %45 = load ptr, ptr %4, align 8
  %46 = getelementptr inbounds nuw %struct.HashScanOpaqueData, ptr %45, i32 0, i32 2
  store i32 0, ptr %46, align 8
  %47 = load ptr, ptr %4, align 8
  %48 = getelementptr inbounds nuw %struct.HashScanOpaqueData, ptr %47, i32 0, i32 7
  %49 = getelementptr inbounds nuw %struct.HashScanPosData, ptr %48, i32 0, i32 0
  %50 = load i32, ptr %49, align 4
  %51 = call zeroext i1 @BufferIsValid(i32 noundef %50)
  br i1 %51, label %52, label %58

52:                                               ; preds = %44
  %53 = load ptr, ptr %3, align 8
  %54 = load ptr, ptr %4, align 8
  %55 = getelementptr inbounds nuw %struct.HashScanOpaqueData, ptr %54, i32 0, i32 7
  %56 = getelementptr inbounds nuw %struct.HashScanPosData, ptr %55, i32 0, i32 0
  %57 = load i32, ptr %56, align 4
  call void @_hash_dropbuf(ptr noundef %53, i32 noundef %57)
  br label %58

58:                                               ; preds = %52, %44
  %59 = load ptr, ptr %4, align 8
  %60 = getelementptr inbounds nuw %struct.HashScanOpaqueData, ptr %59, i32 0, i32 7
  %61 = getelementptr inbounds nuw %struct.HashScanPosData, ptr %60, i32 0, i32 0
  store i32 0, ptr %61, align 4
  %62 = load ptr, ptr %4, align 8
  %63 = getelementptr inbounds nuw %struct.HashScanOpaqueData, ptr %62, i32 0, i32 3
  store i8 0, ptr %63, align 4
  %64 = load ptr, ptr %4, align 8
  %65 = getelementptr inbounds nuw %struct.HashScanOpaqueData, ptr %64, i32 0, i32 4
  store i8 0, ptr %65, align 1
  ret void
}