; Function Attrs: nounwind uwtable
define dso_local void @_hash_dropscanbuf(ptr noundef readnone captures(none) %0, ptr noundef captures(none) initializes((12, 14)) %1) local_unnamed_addr #0 {
  %3 = getelementptr inbounds nuw i8, ptr %1, i64 4
  %4 = load i32, ptr %3, align 4
  %.not20 = icmp eq i32 %4, 0
  br i1 %.not20, label %9, label %5

5:                                                ; preds = %2
  %6 = getelementptr inbounds nuw i8, ptr %1, i64 28
  %7 = load i32, ptr %6, align 4
  %.not = icmp eq i32 %4, %7
  br i1 %.not, label %9, label %8

8:                                                ; preds = %5
  tail call void @ReleaseBuffer(i32 noundef %4) #10
  br label %9

9:                                                ; preds = %8, %5, %2
  store i32 0, ptr %3, align 4
  %10 = getelementptr inbounds nuw i8, ptr %1, i64 8
  %11 = load i32, ptr %10, align 8
  %.not21 = icmp eq i32 %11, 0
  br i1 %.not21, label %16, label %12

12:                                               ; preds = %9
  %13 = getelementptr inbounds nuw i8, ptr %1, i64 28
  %14 = load i32, ptr %13, align 4
  %.not19 = icmp eq i32 %11, %14
  br i1 %.not19, label %16, label %15

15:                                               ; preds = %12
  tail call void @ReleaseBuffer(i32 noundef %11) #10
  br label %16

16:                                               ; preds = %15, %12, %9
  store i32 0, ptr %10, align 8
  %17 = getelementptr inbounds nuw i8, ptr %1, i64 28
  %18 = load i32, ptr %17, align 4
  %.not22 = icmp eq i32 %18, 0
  br i1 %.not22, label %20, label %19

19:                                               ; preds = %16
  tail call void @ReleaseBuffer(i32 noundef %18) #10
  br label %20

20:                                               ; preds = %19, %16
  store i32 0, ptr %17, align 4
  %21 = getelementptr inbounds nuw i8, ptr %1, i64 12
  store i8 0, ptr %21, align 4
  %22 = getelementptr inbounds nuw i8, ptr %1, i64 13
  store i8 0, ptr %22, align 1
  ret void
}